(imatplotlib.font_manager
FontManager
p1
(dp2
S'afm_lookup_cache'
p3
(dp4
sS'ttflist'
p5
(lp6
ccopy_reg
_reconstructor
p7
(cmatplotlib.font_manager
FontEntry
p8
c__builtin__
object
p9
NtRp10
(dp11
S'style'
p12
S'normal'
p13
sS'name'
p14
S'STIXSizeTwoSym'
p15
sS'weight'
p16
I700
sS'stretch'
p17
g13
sS'variant'
p18
g13
sS'fname'
p19
S'/casa/lib/python2.7/site-packages/matplotlib/mpl-data/fonts/ttf/STIXSizTwoSymBol.ttf'
p20
sS'size'
p21
S'scalable'
p22
sbag7
(g8
g9
NtRp23
(dp24
g12
g13
sg14
S'cmmi10'
p25
sg16
I400
sg17
g13
sg18
g13
sg19
S'/casa/lib/python2.7/site-packages/matplotlib/mpl-data/fonts/ttf/cmmi10.ttf'
p26
sg21
g22
sbag7
(g8
g9
NtRp27
(dp28
g12
g13
sg14
S'STIXSizeFourSym'
p29
sg16
I700
sg17
g13
sg18
g13
sg19
S'/casa/lib/python2.7/site-packages/matplotlib/mpl-data/fonts/ttf/STIXSizFourSymBol.ttf'
p30
sg21
g22
sbag7
(g8
g9
NtRp31
(dp32
g12
S'italic'
p33
sg14
S'STIXGeneral'
p34
sg16
I700
sg17
g13
sg18
g13
sg19
S'/casa/lib/python2.7/site-packages/matplotlib/mpl-data/fonts/ttf/STIXGeneralBolIta.ttf'
p35
sg21
g22
sbag7
(g8
g9
NtRp36
(dp37
g12
g13
sg14
S'STIXNonUnicode'
p38
sg16
I400
sg17
g13
sg18
g13
sg19
S'/casa/lib/python2.7/site-packages/matplotlib/mpl-data/fonts/ttf/STIXNonUni.ttf'
p39
sg21
g22
sbag7
(g8
g9
NtRp40
(dp41
g12
g13
sg14
S'cmr10'
p42
sg16
I400
sg17
g13
sg18
g13
sg19
S'/casa/lib/python2.7/site-packages/matplotlib/mpl-data/fonts/ttf/cmr10.ttf'
p43
sg21
g22
sbag7
(g8
g9
NtRp44
(dp45
g12
g13
sg14
S'STIXSizeOneSym'
p46
sg16
I700
sg17
g13
sg18
g13
sg19
S'/casa/lib/python2.7/site-packages/matplotlib/mpl-data/fonts/ttf/STIXSizOneSymBol.ttf'
p47
sg21
g22
sbag7
(g8
g9
NtRp48
(dp49
g12
g33
sg14
S'STIXNonUnicode'
p50
sg16
I700
sg17
g13
sg18
g13
sg19
S'/casa/lib/python2.7/site-packages/matplotlib/mpl-data/fonts/ttf/STIXNonUniBolIta.ttf'
p51
sg21
g22
sbag7
(g8
g9
NtRp52
(dp53
g12
g13
sg14
S'cmtt10'
p54
sg16
I400
sg17
g13
sg18
g13
sg19
S'/casa/lib/python2.7/site-packages/matplotlib/mpl-data/fonts/ttf/cmtt10.ttf'
p55
sg21
g22
sbag7
(g8
g9
NtRp56
(dp57
g12
g13
sg14
S'STIXSizeOneSym'
p58
sg16
I400
sg17
g13
sg18
g13
sg19
S'/casa/lib/python2.7/site-packages/matplotlib/mpl-data/fonts/ttf/STIXSizOneSymReg.ttf'
p59
sg21
g22
sbag7
(g8
g9
NtRp60
(dp61
g12
g13
sg14
S'cmb10'
p62
sg16
I400
sg17
g13
sg18
g13
sg19
S'/casa/lib/python2.7/site-packages/matplotlib/mpl-data/fonts/ttf/cmb10.ttf'
p63
sg21
g22
sbag7
(g8
g9
NtRp64
(dp65
g12
S'oblique'
p66
sg14
S'Bitstream Vera Sans Mono'
p67
sg16
I700
sg17
g13
sg18
g13
sg19
S'/casa/lib/python2.7/site-packages/matplotlib/mpl-data/fonts/ttf/VeraMoBI.ttf'
p68
sg21
g22
sbag7
(g8
g9
NtRp69
(dp70
g12
g13
sg14
S'Bitstream Vera Sans'
p71
sg16
I700
sg17
g13
sg18
g13
sg19
S'/casa/lib/python2.7/site-packages/matplotlib/mpl-data/fonts/ttf/VeraBd.ttf'
p72
sg21
g22
sbag7
(g8
g9
NtRp73
(dp74
g12
g13
sg14
S'STIXGeneral'
p75
sg16
I700
sg17
g13
sg18
g13
sg19
S'/casa/lib/python2.7/site-packages/matplotlib/mpl-data/fonts/ttf/STIXGeneralBol.ttf'
p76
sg21
g22
sbag7
(g8
g9
NtRp77
(dp78
g12
g66
sg14
S'Bitstream Vera Sans'
p79
sg16
I400
sg17
g13
sg18
g13
sg19
S'/casa/lib/python2.7/site-packages/matplotlib/mpl-data/fonts/ttf/VeraIt.ttf'
p80
sg21
g22
sbag7
(g8
g9
NtRp81
(dp82
g12
g13
sg14
S'Bitstream Vera Serif'
p83
sg16
I400
sg17
g13
sg18
g13
sg19
S'/casa/lib/python2.7/site-packages/matplotlib/mpl-data/fonts/ttf/VeraSe.ttf'
p84
sg21
g22
sbag7
(g8
g9
NtRp85
(dp86
g12
g13
sg14
S'STIXGeneral'
p87
sg16
I400
sg17
g13
sg18
g13
sg19
S'/casa/lib/python2.7/site-packages/matplotlib/mpl-data/fonts/ttf/STIXGeneral.ttf'
p88
sg21
g22
sbag7
(g8
g9
NtRp89
(dp90
g12
g13
sg14
S'cmss10'
p91
sg16
I400
sg17
g13
sg18
g13
sg19
S'/casa/lib/python2.7/site-packages/matplotlib/mpl-data/fonts/ttf/cmss10.ttf'
p92
sg21
g22
sbag7
(g8
g9
NtRp93
(dp94
g12
g13
sg14
S'STIXSizeFourSym'
p95
sg16
I400
sg17
g13
sg18
g13
sg19
S'/casa/lib/python2.7/site-packages/matplotlib/mpl-data/fonts/ttf/STIXSizFourSymReg.ttf'
p96
sg21
g22
sbag7
(g8
g9
NtRp97
(dp98
g12
g13
sg14
S'Bitstream Vera Serif'
p99
sg16
I700
sg17
g13
sg18
g13
sg19
S'/casa/lib/python2.7/site-packages/matplotlib/mpl-data/fonts/ttf/VeraSeBd.ttf'
p100
sg21
g22
sbag7
(g8
g9
NtRp101
(dp102
g12
g13
sg14
S'Bitstream Vera Sans Mono'
p103
sg16
I700
sg17
g13
sg18
g13
sg19
S'/casa/lib/python2.7/site-packages/matplotlib/mpl-data/fonts/ttf/VeraMoBd.ttf'
p104
sg21
g22
sbag7
(g8
g9
NtRp105
(dp106
g12
g33
sg14
S'STIXNonUnicode'
p107
sg16
I400
sg17
g13
sg18
g13
sg19
S'/casa/lib/python2.7/site-packages/matplotlib/mpl-data/fonts/ttf/STIXNonUniIta.ttf'
p108
sg21
g22
sbag7
(g8
g9
NtRp109
(dp110
g12
g13
sg14
S'STIXSizeThreeSym'
p111
sg16
I700
sg17
g13
sg18
g13
sg19
S'/casa/lib/python2.7/site-packages/matplotlib/mpl-data/fonts/ttf/STIXSizThreeSymBol.ttf'
p112
sg21
g22
sbag7
(g8
g9
NtRp113
(dp114
g12
g13
sg14
S'STIXNonUnicode'
p115
sg16
I700
sg17
g13
sg18
g13
sg19
S'/casa/lib/python2.7/site-packages/matplotlib/mpl-data/fonts/ttf/STIXNonUniBol.ttf'
p116
sg21
g22
sbag7
(g8
g9
NtRp117
(dp118
g12
g13
sg14
S'Bitstream Vera Sans'
p119
sg16
I400
sg17
g13
sg18
g13
sg19
S'/casa/lib/python2.7/site-packages/matplotlib/mpl-data/fonts/ttf/Vera.ttf'
p120
sg21
g22
sbag7
(g8
g9
NtRp121
(dp122
g12
g66
sg14
S'Bitstream Vera Sans Mono'
p123
sg16
I400
sg17
g13
sg18
g13
sg19
S'/casa/lib/python2.7/site-packages/matplotlib/mpl-data/fonts/ttf/VeraMoIt.ttf'
p124
sg21
g22
sbag7
(g8
g9
NtRp125
(dp126
g12
g33
sg14
S'STIXGeneral'
p127
sg16
I400
sg17
g13
sg18
g13
sg19
S'/casa/lib/python2.7/site-packages/matplotlib/mpl-data/fonts/ttf/STIXGeneralItalic.ttf'
p128
sg21
g22
sbag7
(g8
g9
NtRp129
(dp130
g12
g13
sg14
S'STIXSizeTwoSym'
p131
sg16
I400
sg17
g13
sg18
g13
sg19
S'/casa/lib/python2.7/site-packages/matplotlib/mpl-data/fonts/ttf/STIXSizTwoSymReg.ttf'
p132
sg21
g22
sbag7
(g8
g9
NtRp133
(dp134
g12
g13
sg14
S'STIXSizeThreeSym'
p135
sg16
I400
sg17
g13
sg18
g13
sg19
S'/casa/lib/python2.7/site-packages/matplotlib/mpl-data/fonts/ttf/STIXSizThreeSymReg.ttf'
p136
sg21
g22
sbag7
(g8
g9
NtRp137
(dp138
g12
g13
sg14
S'Bitstream Vera Sans Mono'
p139
sg16
I400
sg17
g13
sg18
g13
sg19
S'/casa/lib/python2.7/site-packages/matplotlib/mpl-data/fonts/ttf/VeraMono.ttf'
p140
sg21
g22
sbag7
(g8
g9
NtRp141
(dp142
g12
g13
sg14
S'STIXSizeFiveSym'
p143
sg16
I400
sg17
g13
sg18
g13
sg19
S'/casa/lib/python2.7/site-packages/matplotlib/mpl-data/fonts/ttf/STIXSizFiveSymReg.ttf'
p144
sg21
g22
sbag7
(g8
g9
NtRp145
(dp146
g12
g13
sg14
S'cmsy10'
p147
sg16
I400
sg17
g13
sg18
g13
sg19
S'/casa/lib/python2.7/site-packages/matplotlib/mpl-data/fonts/ttf/cmsy10.ttf'
p148
sg21
g22
sbag7
(g8
g9
NtRp149
(dp150
g12
g66
sg14
S'Bitstream Vera Sans'
p151
sg16
I700
sg17
g13
sg18
g13
sg19
S'/casa/lib/python2.7/site-packages/matplotlib/mpl-data/fonts/ttf/VeraBI.ttf'
p152
sg21
g22
sbag7
(g8
g9
NtRp153
(dp154
g12
g13
sg14
S'cmex10'
p155
sg16
I400
sg17
g13
sg18
g13
sg19
S'/casa/lib/python2.7/site-packages/matplotlib/mpl-data/fonts/ttf/cmex10.ttf'
p156
sg21
g22
sbasS'defaultFamily'
p157
(dp158
S'afm'
p159
S'Helvetica'
p160
sS'ttf'
p161
S'Bitstream Vera Sans'
p162
ssS'ttffiles'
p163
(lp164
S'/casa/lib/python2.7/site-packages/matplotlib/mpl-data/fonts/ttf/STIXSizTwoSymBol.ttf'
p165
aS'/casa/lib/python2.7/site-packages/matplotlib/mpl-data/fonts/ttf/cmmi10.ttf'
p166
aS'/casa/lib/python2.7/site-packages/matplotlib/mpl-data/fonts/ttf/STIXSizFourSymBol.ttf'
p167
aS'/casa/lib/python2.7/site-packages/matplotlib/mpl-data/fonts/ttf/STIXGeneralBolIta.ttf'
p168
aS'/casa/lib/python2.7/site-packages/matplotlib/mpl-data/fonts/ttf/STIXNonUni.ttf'
p169
aS'/casa/lib/python2.7/site-packages/matplotlib/mpl-data/fonts/ttf/cmr10.ttf'
p170
aS'/casa/lib/python2.7/site-packages/matplotlib/mpl-data/fonts/ttf/STIXSizOneSymBol.ttf'
p171
aS'/casa/lib/python2.7/site-packages/matplotlib/mpl-data/fonts/ttf/STIXNonUniBolIta.ttf'
p172
aS'/casa/lib/python2.7/site-packages/matplotlib/mpl-data/fonts/ttf/cmtt10.ttf'
p173
aS'/casa/lib/python2.7/site-packages/matplotlib/mpl-data/fonts/ttf/STIXSizOneSymReg.ttf'
p174
aS'/casa/lib/python2.7/site-packages/matplotlib/mpl-data/fonts/ttf/cmb10.ttf'
p175
aS'/casa/lib/python2.7/site-packages/matplotlib/mpl-data/fonts/ttf/VeraMoBI.ttf'
p176
aS'/casa/lib/python2.7/site-packages/matplotlib/mpl-data/fonts/ttf/VeraBd.ttf'
p177
aS'/casa/lib/python2.7/site-packages/matplotlib/mpl-data/fonts/ttf/STIXGeneralBol.ttf'
p178
aS'/casa/lib/python2.7/site-packages/matplotlib/mpl-data/fonts/ttf/VeraIt.ttf'
p179
aS'/casa/lib/python2.7/site-packages/matplotlib/mpl-data/fonts/ttf/VeraSe.ttf'
p180
aS'/casa/lib/python2.7/site-packages/matplotlib/mpl-data/fonts/ttf/STIXGeneral.ttf'
p181
aS'/casa/lib/python2.7/site-packages/matplotlib/mpl-data/fonts/ttf/cmss10.ttf'
p182
aS'/casa/lib/python2.7/site-packages/matplotlib/mpl-data/fonts/ttf/STIXSizFourSymReg.ttf'
p183
aS'/casa/lib/python2.7/site-packages/matplotlib/mpl-data/fonts/ttf/VeraSeBd.ttf'
p184
aS'/casa/lib/python2.7/site-packages/matplotlib/mpl-data/fonts/ttf/VeraMoBd.ttf'
p185
aS'/casa/lib/python2.7/site-packages/matplotlib/mpl-data/fonts/ttf/STIXNonUniIta.ttf'
p186
aS'/casa/lib/python2.7/site-packages/matplotlib/mpl-data/fonts/ttf/STIXSizThreeSymBol.ttf'
p187
aS'/casa/lib/python2.7/site-packages/matplotlib/mpl-data/fonts/ttf/STIXNonUniBol.ttf'
p188
aS'/casa/lib/python2.7/site-packages/matplotlib/mpl-data/fonts/ttf/Vera.ttf'
p189
aS'/casa/lib/python2.7/site-packages/matplotlib/mpl-data/fonts/ttf/VeraMoIt.ttf'
p190
aS'/casa/lib/python2.7/site-packages/matplotlib/mpl-data/fonts/ttf/STIXGeneralItalic.ttf'
p191
aS'/casa/lib/python2.7/site-packages/matplotlib/mpl-data/fonts/ttf/STIXSizTwoSymReg.ttf'
p192
aS'/casa/lib/python2.7/site-packages/matplotlib/mpl-data/fonts/ttf/STIXSizThreeSymReg.ttf'
p193
aS'/casa/lib/python2.7/site-packages/matplotlib/mpl-data/fonts/ttf/VeraMono.ttf'
p194
aS'/casa/lib/python2.7/site-packages/matplotlib/mpl-data/fonts/ttf/STIXSizFiveSymReg.ttf'
p195
aS'/casa/lib/python2.7/site-packages/matplotlib/mpl-data/fonts/ttf/cmsy10.ttf'
p196
aS'/casa/lib/python2.7/site-packages/matplotlib/mpl-data/fonts/ttf/VeraBI.ttf'
p197
aS'/casa/lib/python2.7/site-packages/matplotlib/mpl-data/fonts/ttf/cmex10.ttf'
p198
asS'_FontManager__default_weight'
p199
g13
sS'_version'
p200
I7
sS'ttf_lookup_cache'
p201
(dp202
sS'default_size'
p203
NsS'defaultFont'
p204
(dp205
g159
Nsg161
g189
ssS'afmfiles'
p206
(lp207
S'/casa/lib/python2.7/site-packages/matplotlib/mpl-data/fonts/afm/pcrbo8a.afm'
p208
aS'/casa/lib/python2.7/site-packages/matplotlib/mpl-data/fonts/afm/ptmb8a.afm'
p209
aS'/casa/lib/python2.7/site-packages/matplotlib/mpl-data/fonts/afm/pncbi8a.afm'
p210
aS'/casa/lib/python2.7/site-packages/matplotlib/mpl-data/fonts/pdfcorefonts/Helvetica-BoldOblique.afm'
p211
aS'/casa/lib/python2.7/site-packages/matplotlib/mpl-data/fonts/afm/pbkdi8a.afm'
p212
aS'/casa/lib/python2.7/site-packages/matplotlib/mpl-data/fonts/pdfcorefonts/Courier-Bold.afm'
p213
aS'/casa/lib/python2.7/site-packages/matplotlib/mpl-data/fonts/afm/phvr8a.afm'
p214
aS'/casa/lib/python2.7/site-packages/matplotlib/mpl-data/fonts/afm/psyr.afm'
p215
aS'/casa/lib/python2.7/site-packages/matplotlib/mpl-data/fonts/pdfcorefonts/ZapfDingbats.afm'
p216
aS'/casa/lib/python2.7/site-packages/matplotlib/mpl-data/fonts/pdfcorefonts/Courier-BoldOblique.afm'
p217
aS'/casa/lib/python2.7/site-packages/matplotlib/mpl-data/fonts/afm/cmsy10.afm'
p218
aS'/casa/lib/python2.7/site-packages/matplotlib/mpl-data/fonts/afm/pplb8a.afm'
p219
aS'/casa/lib/python2.7/site-packages/matplotlib/mpl-data/fonts/afm/putri8a.afm'
p220
aS'/casa/lib/python2.7/site-packages/matplotlib/mpl-data/fonts/afm/pcrr8a.afm'
p221
aS'/casa/lib/python2.7/site-packages/matplotlib/mpl-data/fonts/pdfcorefonts/Helvetica-Bold.afm'
p222
aS'/casa/lib/python2.7/site-packages/matplotlib/mpl-data/fonts/afm/pncb8a.afm'
p223
aS'/casa/lib/python2.7/site-packages/matplotlib/mpl-data/fonts/afm/pagd8a.afm'
p224
aS'/casa/lib/python2.7/site-packages/matplotlib/mpl-data/fonts/afm/pagdo8a.afm'
p225
aS'/casa/lib/python2.7/site-packages/matplotlib/mpl-data/fonts/pdfcorefonts/Times-Italic.afm'
p226
aS'/casa/lib/python2.7/site-packages/matplotlib/mpl-data/fonts/afm/pagko8a.afm'
p227
aS'/casa/lib/python2.7/site-packages/matplotlib/mpl-data/fonts/pdfcorefonts/Times-Roman.afm'
p228
aS'/casa/lib/python2.7/site-packages/matplotlib/mpl-data/fonts/pdfcorefonts/Courier.afm'
p229
aS'/casa/lib/python2.7/site-packages/matplotlib/mpl-data/fonts/afm/phvlo8a.afm'
p230
aS'/casa/lib/python2.7/site-packages/matplotlib/mpl-data/fonts/afm/pbkli8a.afm'
p231
aS'/casa/lib/python2.7/site-packages/matplotlib/mpl-data/fonts/afm/pbkd8a.afm'
p232
aS'/casa/lib/python2.7/site-packages/matplotlib/mpl-data/fonts/afm/pcrro8a.afm'
p233
aS'/casa/lib/python2.7/site-packages/matplotlib/mpl-data/fonts/afm/pplbi8a.afm'
p234
aS'/casa/lib/python2.7/site-packages/matplotlib/mpl-data/fonts/afm/putb8a.afm'
p235
aS'/casa/lib/python2.7/site-packages/matplotlib/mpl-data/fonts/afm/pplr8a.afm'
p236
aS'/casa/lib/python2.7/site-packages/matplotlib/mpl-data/fonts/afm/phvro8a.afm'
p237
aS'/casa/lib/python2.7/site-packages/matplotlib/mpl-data/fonts/pdfcorefonts/Courier-Oblique.afm'
p238
aS'/casa/lib/python2.7/site-packages/matplotlib/mpl-data/fonts/pdfcorefonts/Times-BoldItalic.afm'
p239
aS'/casa/lib/python2.7/site-packages/matplotlib/mpl-data/fonts/afm/phvro8an.afm'
p240
aS'/casa/lib/python2.7/site-packages/matplotlib/mpl-data/fonts/afm/cmr10.afm'
p241
aS'/casa/lib/python2.7/site-packages/matplotlib/mpl-data/fonts/afm/pplri8a.afm'
p242
aS'/casa/lib/python2.7/site-packages/matplotlib/mpl-data/fonts/afm/phvbo8a.afm'
p243
aS'/casa/lib/python2.7/site-packages/matplotlib/mpl-data/fonts/pdfcorefonts/Symbol.afm'
p244
aS'/casa/lib/python2.7/site-packages/matplotlib/mpl-data/fonts/pdfcorefonts/Times-Bold.afm'
p245
aS'/casa/lib/python2.7/site-packages/matplotlib/mpl-data/fonts/afm/phvl8a.afm'
p246
aS'/casa/lib/python2.7/site-packages/matplotlib/mpl-data/fonts/afm/putbi8a.afm'
p247
aS'/casa/lib/python2.7/site-packages/matplotlib/mpl-data/fonts/afm/ptmbi8a.afm'
p248
aS'/casa/lib/python2.7/site-packages/matplotlib/mpl-data/fonts/afm/pcrb8a.afm'
p249
aS'/casa/lib/python2.7/site-packages/matplotlib/mpl-data/fonts/afm/ptmr8a.afm'
p250
aS'/casa/lib/python2.7/site-packages/matplotlib/mpl-data/fonts/afm/ptmri8a.afm'
p251
aS'/casa/lib/python2.7/site-packages/matplotlib/mpl-data/fonts/afm/pzcmi8a.afm'
p252
aS'/casa/lib/python2.7/site-packages/matplotlib/mpl-data/fonts/afm/putr8a.afm'
p253
aS'/casa/lib/python2.7/site-packages/matplotlib/mpl-data/fonts/afm/pagk8a.afm'
p254
aS'/casa/lib/python2.7/site-packages/matplotlib/mpl-data/fonts/afm/phvr8an.afm'
p255
aS'/casa/lib/python2.7/site-packages/matplotlib/mpl-data/fonts/pdfcorefonts/Helvetica.afm'
p256
aS'/casa/lib/python2.7/site-packages/matplotlib/mpl-data/fonts/afm/pzdr.afm'
p257
aS'/casa/lib/python2.7/site-packages/matplotlib/mpl-data/fonts/afm/phvb8an.afm'
p258
aS'/casa/lib/python2.7/site-packages/matplotlib/mpl-data/fonts/afm/cmtt10.afm'
p259
aS'/casa/lib/python2.7/site-packages/matplotlib/mpl-data/fonts/afm/phvbo8an.afm'
p260
aS'/casa/lib/python2.7/site-packages/matplotlib/mpl-data/fonts/afm/cmmi10.afm'
p261
aS'/casa/lib/python2.7/site-packages/matplotlib/mpl-data/fonts/afm/pncr8a.afm'
p262
aS'/casa/lib/python2.7/site-packages/matplotlib/mpl-data/fonts/afm/pncri8a.afm'
p263
aS'/casa/lib/python2.7/site-packages/matplotlib/mpl-data/fonts/afm/cmex10.afm'
p264
aS'/casa/lib/python2.7/site-packages/matplotlib/mpl-data/fonts/afm/pbkl8a.afm'
p265
aS'/casa/lib/python2.7/site-packages/matplotlib/mpl-data/fonts/pdfcorefonts/Helvetica-Oblique.afm'
p266
aS'/casa/lib/python2.7/site-packages/matplotlib/mpl-data/fonts/afm/phvb8a.afm'
p267
asS'afmlist'
p268
(lp269
g7
(g8
g9
NtRp270
(dp271
g12
g33
sg14
S'Courier'
p272
sg16
I700
sg17
g13
sg18
g13
sg19
g208
sg21
g22
sbag7
(g8
g9
NtRp273
(dp274
g12
g13
sg14
S'Times'
p275
sg16
I700
sg17
g13
sg18
g13
sg19
g209
sg21
g22
sbag7
(g8
g9
NtRp276
(dp277
g12
g33
sg14
S'New Century Schoolbook'
p278
sg16
I700
sg17
g13
sg18
g13
sg19
g210
sg21
g22
sbag7
(g8
g9
NtRp279
(dp280
g12
g33
sg14
S'Helvetica'
p281
sg16
I700
sg17
g13
sg18
g13
sg19
g211
sg21
g22
sbag7
(g8
g9
NtRp282
(dp283
g12
g33
sg14
S'ITC Bookman'
p284
sg16
I600
sg17
g13
sg18
g13
sg19
g212
sg21
g22
sbag7
(g8
g9
NtRp285
(dp286
g12
g13
sg14
S'Courier'
p287
sg16
I700
sg17
g13
sg18
g13
sg19
g213
sg21
g22
sbag7
(g8
g9
NtRp288
(dp289
g12
g13
sg14
S'Helvetica'
p290
sg16
I500
sg17
g13
sg18
g13
sg19
g214
sg21
g22
sbag7
(g8
g9
NtRp291
(dp292
g12
g13
sg14
S'Symbol'
p293
sg16
I500
sg17
g13
sg18
g13
sg19
g215
sg21
g22
sbag7
(g8
g9
NtRp294
(dp295
g12
g13
sg14
S'ZapfDingbats'
p296
sg16
I500
sg17
g13
sg18
g13
sg19
g216
sg21
g22
sbag7
(g8
g9
NtRp297
(dp298
g12
g33
sg14
S'Courier'
p299
sg16
I700
sg17
g13
sg18
g13
sg19
g217
sg21
g22
sbag7
(g8
g9
NtRp300
(dp301
g12
g33
sg14
S'Computer Modern'
p302
sg16
I500
sg17
g13
sg18
g13
sg19
g218
sg21
g22
sbag7
(g8
g9
NtRp303
(dp304
g12
g13
sg14
S'Palatino'
p305
sg16
I700
sg17
g13
sg18
g13
sg19
g219
sg21
g22
sbag7
(g8
g9
NtRp306
(dp307
g12
g33
sg14
S'Utopia'
p308
sg16
I400
sg17
g13
sg18
g13
sg19
g220
sg21
g22
sbag7
(g8
g9
NtRp309
(dp310
g12
g13
sg14
S'Courier'
p311
sg16
I500
sg17
g13
sg18
g13
sg19
g221
sg21
g22
sbag7
(g8
g9
NtRp312
(dp313
g12
g13
sg14
S'Helvetica'
p314
sg16
I700
sg17
g13
sg18
g13
sg19
g222
sg21
g22
sbag7
(g8
g9
NtRp315
(dp316
g12
g13
sg14
S'New Century Schoolbook'
p317
sg16
I700
sg17
g13
sg18
g13
sg19
g223
sg21
g22
sbag7
(g8
g9
NtRp318
(dp319
g12
g13
sg14
S'ITC Avant Garde Gothic'
p320
sg16
I600
sg17
g13
sg18
g13
sg19
g224
sg21
g22
sbag7
(g8
g9
NtRp321
(dp322
g12
g33
sg14
S'ITC Avant Garde Gothic'
p323
sg16
I600
sg17
g13
sg18
g13
sg19
g225
sg21
g22
sbag7
(g8
g9
NtRp324
(dp325
g12
g33
sg14
S'Times'
p326
sg16
I500
sg17
g13
sg18
g13
sg19
g226
sg21
g22
sbag7
(g8
g9
NtRp327
(dp328
g12
g33
sg14
S'ITC Avant Garde Gothic'
p329
sg16
I400
sg17
g13
sg18
g13
sg19
g227
sg21
g22
sbag7
(g8
g9
NtRp330
(dp331
g12
g13
sg14
S'Times'
p332
sg16
I500
sg17
g13
sg18
g13
sg19
g228
sg21
g22
sbag7
(g8
g9
NtRp333
(dp334
g12
g13
sg14
S'Courier'
p335
sg16
I500
sg17
g13
sg18
g13
sg19
g229
sg21
g22
sbag7
(g8
g9
NtRp336
(dp337
g12
g33
sg14
S'Helvetica'
p338
sg16
I200
sg17
g13
sg18
g13
sg19
g230
sg21
g22
sbag7
(g8
g9
NtRp339
(dp340
g12
g33
sg14
S'ITC Bookman'
p341
sg16
I200
sg17
g13
sg18
g13
sg19
g231
sg21
g22
sbag7
(g8
g9
NtRp342
(dp343
g12
g13
sg14
S'ITC Bookman'
p344
sg16
I600
sg17
g13
sg18
g13
sg19
g232
sg21
g22
sbag7
(g8
g9
NtRp345
(dp346
g12
g33
sg14
S'Courier'
p347
sg16
I500
sg17
g13
sg18
g13
sg19
g233
sg21
g22
sbag7
(g8
g9
NtRp348
(dp349
g12
g33
sg14
S'Palatino'
p350
sg16
I700
sg17
g13
sg18
g13
sg19
g234
sg21
g22
sbag7
(g8
g9
NtRp351
(dp352
g12
g13
sg14
S'Utopia'
p353
sg16
I700
sg17
g13
sg18
g13
sg19
g235
sg21
g22
sbag7
(g8
g9
NtRp354
(dp355
g12
g13
sg14
S'Palatino'
p356
sg16
I500
sg17
g13
sg18
g13
sg19
g236
sg21
g22
sbag7
(g8
g9
NtRp357
(dp358
g12
g33
sg14
S'Helvetica'
p359
sg16
I500
sg17
g13
sg18
g13
sg19
g237
sg21
g22
sbag7
(g8
g9
NtRp360
(dp361
g12
g33
sg14
S'Courier'
p362
sg16
I500
sg17
g13
sg18
g13
sg19
g238
sg21
g22
sbag7
(g8
g9
NtRp363
(dp364
g12
g33
sg14
S'Times'
p365
sg16
I700
sg17
g13
sg18
g13
sg19
g239
sg21
g22
sbag7
(g8
g9
NtRp366
(dp367
g12
g33
sg14
S'Helvetica'
p368
sg16
I500
sg17
S'condensed'
p369
sg18
g13
sg19
g240
sg21
g22
sbag7
(g8
g9
NtRp370
(dp371
g12
g13
sg14
S'Computer Modern'
p372
sg16
I500
sg17
g13
sg18
g13
sg19
g241
sg21
g22
sbag7
(g8
g9
NtRp373
(dp374
g12
g33
sg14
S'Palatino'
p375
sg16
I500
sg17
g13
sg18
g13
sg19
g242
sg21
g22
sbag7
(g8
g9
NtRp376
(dp377
g12
g33
sg14
S'Helvetica'
p378
sg16
I700
sg17
g13
sg18
g13
sg19
g243
sg21
g22
sbag7
(g8
g9
NtRp379
(dp380
g12
g13
sg14
S'Symbol'
p381
sg16
I500
sg17
g13
sg18
g13
sg19
g244
sg21
g22
sbag7
(g8
g9
NtRp382
(dp383
g12
g13
sg14
S'Times'
p384
sg16
I700
sg17
g13
sg18
g13
sg19
g245
sg21
g22
sbag7
(g8
g9
NtRp385
(dp386
g12
g13
sg14
S'Helvetica'
p387
sg16
I200
sg17
g13
sg18
g13
sg19
g246
sg21
g22
sbag7
(g8
g9
NtRp388
(dp389
g12
g33
sg14
S'Utopia'
p390
sg16
I700
sg17
g13
sg18
g13
sg19
g247
sg21
g22
sbag7
(g8
g9
NtRp391
(dp392
g12
g33
sg14
S'Times'
p393
sg16
I700
sg17
g13
sg18
g13
sg19
g248
sg21
g22
sbag7
(g8
g9
NtRp394
(dp395
g12
g13
sg14
S'Courier'
p396
sg16
I700
sg17
g13
sg18
g13
sg19
g249
sg21
g22
sbag7
(g8
g9
NtRp397
(dp398
g12
g13
sg14
S'Times'
p399
sg16
I500
sg17
g13
sg18
g13
sg19
g250
sg21
g22
sbag7
(g8
g9
NtRp400
(dp401
g12
g33
sg14
S'Times'
p402
sg16
I500
sg17
g13
sg18
g13
sg19
g251
sg21
g22
sbag7
(g8
g9
NtRp403
(dp404
g12
g33
sg14
S'ITC Zapf Chancery'
p405
sg16
I500
sg17
g13
sg18
g13
sg19
g252
sg21
g22
sbag7
(g8
g9
NtRp406
(dp407
g12
g13
sg14
S'Utopia'
p408
sg16
I400
sg17
g13
sg18
g13
sg19
g253
sg21
g22
sbag7
(g8
g9
NtRp409
(dp410
g12
g13
sg14
S'ITC Avant Garde Gothic'
p411
sg16
I400
sg17
g13
sg18
g13
sg19
g254
sg21
g22
sbag7
(g8
g9
NtRp412
(dp413
g12
g13
sg14
S'Helvetica'
p414
sg16
I500
sg17
g369
sg18
g13
sg19
g255
sg21
g22
sbag7
(g8
g9
NtRp415
(dp416
g12
g13
sg14
S'Helvetica'
p417
sg16
I500
sg17
g13
sg18
g13
sg19
g256
sg21
g22
sbag7
(g8
g9
NtRp418
(dp419
g12
g13
sg14
S'ITC Zapf Dingbats'
p420
sg16
I500
sg17
g13
sg18
g13
sg19
g257
sg21
g22
sbag7
(g8
g9
NtRp421
(dp422
g12
g13
sg14
S'Helvetica'
p423
sg16
I700
sg17
g369
sg18
g13
sg19
g258
sg21
g22
sbag7
(g8
g9
NtRp424
(dp425
g12
g13
sg14
S'Computer Modern'
p426
sg16
I500
sg17
g13
sg18
g13
sg19
g259
sg21
g22
sbag7
(g8
g9
NtRp427
(dp428
g12
g33
sg14
S'Helvetica'
p429
sg16
I700
sg17
g369
sg18
g13
sg19
g260
sg21
g22
sbag7
(g8
g9
NtRp430
(dp431
g12
g33
sg14
S'Computer Modern'
p432
sg16
I500
sg17
g13
sg18
g13
sg19
g261
sg21
g22
sbag7
(g8
g9
NtRp433
(dp434
g12
g13
sg14
S'New Century Schoolbook'
p435
sg16
I500
sg17
g13
sg18
g13
sg19
g262
sg21
g22
sbag7
(g8
g9
NtRp436
(dp437
g12
g33
sg14
S'New Century Schoolbook'
p438
sg16
I500
sg17
g13
sg18
g13
sg19
g263
sg21
g22
sbag7
(g8
g9
NtRp439
(dp440
g12
g13
sg14
S'Computer Modern'
p441
sg16
I500
sg17
g13
sg18
g13
sg19
g264
sg21
g22
sbag7
(g8
g9
NtRp442
(dp443
g12
g13
sg14
S'ITC Bookman'
p444
sg16
I200
sg17
g13
sg18
g13
sg19
g265
sg21
g22
sbag7
(g8
g9
NtRp445
(dp446
g12
g33
sg14
S'Helvetica'
p447
sg16
I500
sg17
g13
sg18
g13
sg19
g266
sg21
g22
sbag7
(g8
g9
NtRp448
(dp449
g12
g13
sg14
S'Helvetica'
p450
sg16
I700
sg17
g13
sg18
g13
sg19
g267
sg21
g22
sbasb.
